(lp0
(dp1
S'score'
p2
S'3 - 4'
p3
sS'year'
p4
S'2012'
p5
sS'total'
p6
S'arsenal - lose // dinamo - win'
p7
sS'teams'
p8
S'arsenal - dinamo'
p9
sS'day'
p10
S'21'
p11
sS'month'
p12
S'april'
p13
sa(dp14
S'score'
p15
S'2 - 2'
p16
sS'year'
p17
S'1995'
p18
sS'total'
p19
S'draw'
p20
sS'teams'
p21
S'MU - PSG'
p22
sS'day'
p23
S'11'
p24
sS'month'
p25
S'march'
p26
sa.